target datalayout = "e-m:e-p270:32:32-p271:32:32-p272:64:64-i64:64-i128:128-f80:128-n8:16:32:64-S128"
target triple = "x86_64-pc-linux-gnu"

%"class.boost::program_options::detail::cmdline" = type { %"class.std::vector", i32, i8, ptr, ptr, %"class.boost::function_n", %"class.boost::function_n.3" }
%"class.std::vector" = type { %"struct.std::_Vector_base" }
%"struct.std::_Vector_base" = type { %"struct.std::_Vector_base<std::__cxx11::basic_string<char>, std::allocator<std::__cxx11::basic_string<char>>>::_Vector_impl" }
%"struct.std::_Vector_base<std::__cxx11::basic_string<char>, std::allocator<std::__cxx11::basic_string<char>>>::_Vector_impl" = type { %"struct.std::_Vector_base<std::__cxx11::basic_string<char>, std::allocator<std::__cxx11::basic_string<char>>>::_Vector_impl_data" }
%"struct.std::_Vector_base<std::__cxx11::basic_string<char>, std::allocator<std::__cxx11::basic_string<char>>>::_Vector_impl_data" = type { ptr, ptr, ptr }
%"class.boost::function_n" = type { %"class.boost::function_base" }
%"class.boost::function_base" = type { ptr, %"union.boost::detail::function::function_buffer" }
%"union.boost::detail::function::function_buffer" = type { %"union.boost::detail::function::function_buffer_members" }
%"union.boost::detail::function::function_buffer_members" = type { %"struct.boost::detail::function::function_buffer_members::bound_memfunc_ptr_t" }
%"struct.boost::detail::function::function_buffer_members::bound_memfunc_ptr_t" = type { { i64, i64 }, ptr }
%"class.boost::function_n.3" = type { %"class.boost::function_base" }

; Function Attrs: mustprogress nounwind uwtable
define noundef i32 @_ZN5boost15program_options6detail7cmdline27get_canonical_option_prefixEv(ptr noundef nonnull align 8 dereferenceable(112) %0) #6 align 2 {
  %2 = alloca i32, align 4
  %3 = alloca ptr, align 8
  store ptr %0, ptr %3, align 8, !tbaa !3
  %4 = load ptr, ptr %3, align 8
  %5 = getelementptr inbounds nuw %"class.boost::program_options::detail::cmdline", ptr %4, i32 0, i32 1
  %6 = load i32, ptr %5, align 8, !tbaa !9
  %7 = and i32 %6, 1
  %8 = icmp ne i32 %7, 0
  br i1 %8, label %9, label %10

9:                                                ; preds = %1
  store i32 1, ptr %2, align 4
  br label %39

10:                                               ; preds = %1
  %11 = getelementptr inbounds nuw %"class.boost::program_options::detail::cmdline", ptr %4, i32 0, i32 1
  %12 = load i32, ptr %11, align 8, !tbaa !9
  %13 = and i32 %12, 4096
  %14 = icmp ne i32 %13, 0
  br i1 %14, label %15, label %16

15:                                               ; preds = %10
  store i32 4096, ptr %2, align 4
  br label %39

16:                                               ; preds = %10
  %17 = getelementptr inbounds nuw %"class.boost::program_options::detail::cmdline", ptr %4, i32 0, i32 1
  %18 = load i32, ptr %17, align 8, !tbaa !9
  %19 = and i32 %18, 2
  %20 = icmp ne i32 %19, 0
  br i1 %20, label %21, label %27

21:                                               ; preds = %16
  %22 = getelementptr inbounds nuw %"class.boost::program_options::detail::cmdline", ptr %4, i32 0, i32 1
  %23 = load i32, ptr %22, align 8, !tbaa !9
  %24 = and i32 %23, 4
  %25 = icmp ne i32 %24, 0
  br i1 %25, label %26, label %27

26:                                               ; preds = %21
  store i32 4, ptr %2, align 4
  br label %39

27:                                               ; preds = %21, %16
  %28 = getelementptr inbounds nuw %"class.boost::program_options::detail::cmdline", ptr %4, i32 0, i32 1
  %29 = load i32, ptr %28, align 8, !tbaa !9
  %30 = and i32 %29, 2
  %31 = icmp ne i32 %30, 0
  br i1 %31, label %32, label %38

32:                                               ; preds = %27
  %33 = getelementptr inbounds nuw %"class.boost::program_options::detail::cmdline", ptr %4, i32 0, i32 1
  %34 = load i32, ptr %33, align 8, !tbaa !9
  %35 = and i32 %34, 8
  %36 = icmp ne i32 %35, 0
  br i1 %36, label %37, label %38

37:                                               ; preds = %32
  store i32 8, ptr %2, align 4
  br label %39

38:                                               ; preds = %32, %27
  store i32 0, ptr %2, align 4
  br label %39

39:                                               ; preds = %38, %37, %26, %15, %9
  %40 = load i32, ptr %2, align 4
  ret i32 %40
}