; Function Attrs: mustprogress nofree norecurse nosync nounwind willreturn memory(argmem: read) uwtable
define noundef range(i32 0, 4097) i32 @_ZN5boost15program_options6detail7cmdline27get_canonical_option_prefixEv(ptr nocapture noundef nonnull readonly align 8 dereferenceable(112) %0) local_unnamed_addr #8 align 2 {
  %2 = getelementptr inbounds nuw i8, ptr %0, i64 24
  %3 = load i32, ptr %2, align 8, !tbaa !16
  %4 = and i32 %3, 1
  %.not = icmp eq i32 %4, 0
  br i1 %.not, label %5, label %11

5:                                                ; preds = %1
  %6 = and i32 %3, 4096
  %.not1 = icmp eq i32 %6, 0
  br i1 %.not1, label %7, label %11

7:                                                ; preds = %5
  %8 = and i32 %3, 6
  %or.cond.not = icmp eq i32 %8, 6
  br i1 %or.cond.not, label %11, label %9

9:                                                ; preds = %7
  %10 = and i32 %3, 10
  %or.cond6.not = icmp eq i32 %10, 10
  %spec.select = select i1 %or.cond6.not, i32 8, i32 0
  br label %11

11:                                               ; preds = %9, %7, %5, %1
  %.0 = phi i32 [ 1, %1 ], [ 4096, %5 ], [ 4, %7 ], [ %spec.select, %9 ]
  ret i32 %.0
}